; Function Attrs: mustprogress nounwind uwtable
define internal void @_ZN12_GLOBAL__N_116TypeNameComputer14visitTypeBeginERN4llvm8codeview8CVRecordINS2_12TypeLeafKindEEENS2_9TypeIndexE(ptr dead_on_unwind noalias nocapture writable writeonly sret(%"class.llvm::Error") align 8 %0, ptr noundef nonnull align 8 dereferenceable(304) %1, ptr nocapture nonnull readnone align 8 %2, i32 %3) unnamed_addr #0 align 2 {
_ZN4llvm12ErrorSuccessD2Ev.exit:
  %4 = getelementptr inbounds nuw i8, ptr %1, i64 24
  %5 = tail call noundef i64 @_ZNK4llvm15SmallVectorBaseImE4sizeEv(ptr noundef nonnull align 8 dereferenceable(24) %4) #16
  %6 = getelementptr inbounds i8, ptr %1, i64 32
  store i64 0, ptr %6, align 8
  tail call void @_ZN4llvm15SmallVectorImplIcE6appendIPKcvEEvT_S5_(ptr noundef nonnull align 8 dereferenceable(24) %4, ptr noundef nonnull @.str.1, ptr noundef nonnull @.str.1)
  %7 = getelementptr inbounds nuw i8, ptr %1, i64 16
  store i32 %3, ptr %7, align 8
  store ptr null, ptr %0, align 8
  ret void
}